target datalayout = "e-m:e-p270:32:32-p271:32:32-p272:64:64-i64:64-i128:128-f80:128-n8:16:32:64-S128"
target triple = "x86_64-pc-linux-gnu"

; Function Attrs: nounwind uwtable
define i32 @Kit_WordCountOnes_64bit(i64 noundef %0) #0 {
  %2 = alloca i64, align 8
  store i64 %0, ptr %2, align 8, !tbaa !7
  %3 = load i64, ptr %2, align 8, !tbaa !7
  %4 = load i64, ptr %2, align 8, !tbaa !7
  %5 = lshr i64 %4, 1
  %6 = and i64 %5, 6148914691236517205
  %7 = sub i64 %3, %6
  store i64 %7, ptr %2, align 8, !tbaa !7
  %8 = load i64, ptr %2, align 8, !tbaa !7
  %9 = and i64 %8, 3689348814741910323
  %10 = load i64, ptr %2, align 8, !tbaa !7
  %11 = lshr i64 %10, 2
  %12 = and i64 %11, 3689348814741910323
  %13 = add i64 %9, %12
  store i64 %13, ptr %2, align 8, !tbaa !7
  %14 = load i64, ptr %2, align 8, !tbaa !7
  %15 = load i64, ptr %2, align 8, !tbaa !7
  %16 = lshr i64 %15, 4
  %17 = add i64 %14, %16
  %18 = and i64 %17, 1085102592571150095
  store i64 %18, ptr %2, align 8, !tbaa !7
  %19 = load i64, ptr %2, align 8, !tbaa !7
  %20 = load i64, ptr %2, align 8, !tbaa !7
  %21 = lshr i64 %20, 8
  %22 = add i64 %19, %21
  store i64 %22, ptr %2, align 8, !tbaa !7
  %23 = load i64, ptr %2, align 8, !tbaa !7
  %24 = load i64, ptr %2, align 8, !tbaa !7
  %25 = lshr i64 %24, 16
  %26 = add i64 %23, %25
  store i64 %26, ptr %2, align 8, !tbaa !7
  %27 = load i64, ptr %2, align 8, !tbaa !7
  %28 = load i64, ptr %2, align 8, !tbaa !7
  %29 = lshr i64 %28, 32
  %30 = add i64 %27, %29
  store i64 %30, ptr %2, align 8, !tbaa !7
  %31 = load i64, ptr %2, align 8, !tbaa !7
  %32 = and i64 %31, 255
  %33 = trunc i64 %32 to i32
  ret i32 %33
}