; Function Attrs: mustprogress nofree norecurse nosync nounwind willreturn memory(none) uwtable
define range(i32 0, 256) i32 @Kit_WordCountOnes_64bit(i64 noundef %0) local_unnamed_addr #0 {
  %2 = lshr i64 %0, 1
  %3 = and i64 %2, 6148914691236517205
  %4 = sub i64 %0, %3
  %5 = and i64 %4, 3689348814741910323
  %6 = lshr i64 %4, 2
  %7 = and i64 %6, 3689348814741910323
  %8 = add nuw nsw i64 %7, %5
  %9 = lshr i64 %8, 4
  %10 = add nuw nsw i64 %9, %8
  %11 = and i64 %10, 1085102592571150095
  %12 = lshr i64 %11, 8
  %13 = add nuw nsw i64 %12, %11
  %14 = lshr i64 %13, 16
  %15 = add nuw nsw i64 %14, %13
  %16 = lshr i64 %15, 32
  %17 = add nuw nsw i64 %16, %15
  %18 = trunc i64 %17 to i32
  %19 = and i32 %18, 255
  ret i32 %19
}